; Function Attrs: mustprogress nounwind uwtable
define void @_ZN5boost11this_thread20disable_interruptionD2Ev(ptr nocapture noundef nonnull readonly align 1 dereferenceable(1) %0) unnamed_addr #5 align 2 personality ptr @__gxx_personality_v0 {
  %2 = tail call noundef zeroext i1 @_ZN5boost13thread_detail17enter_once_regionERNS_9once_flagE(ptr noundef nonnull align 4 dereferenceable(4) @_ZN5boost6detail12_GLOBAL__N_128current_thread_tls_init_flagE) #32
  br i1 %2, label %_ZN5boost6detail6invokeIPFvvEJEEEDTclclsr5boostE7forwardIT_Efp_Espclsr5boostE7forwardIT0_Efp0_EEEOS4_DpOS5_.exit.i.i, label %4

_ZN5boost6detail6invokeIPFvvEJEEEDTclclsr5boostE7forwardIT_Efp_Espclsr5boostE7forwardIT0_Efp0_EEEOS4_DpOS5_.exit.i.i: ; preds = %1
  %3 = tail call i32 @pthread_key_create(ptr noundef nonnull @_ZN5boost6detail12_GLOBAL__N_122current_thread_tls_keyE, ptr noundef nonnull @_ZN5boost6detail12_GLOBAL__N_114tls_destructorEPv) #32
  tail call void @_ZN5boost13thread_detail18commit_once_regionERNS_9once_flagE(ptr noundef nonnull align 4 dereferenceable(4) @_ZN5boost6detail12_GLOBAL__N_128current_thread_tls_init_flagE) #32
  br label %4

4:                                                ; preds = %_ZN5boost6detail6invokeIPFvvEJEEEDTclclsr5boostE7forwardIT_Efp_Espclsr5boostE7forwardIT0_Efp0_EEEOS4_DpOS5_.exit.i.i, %1
  %5 = load i32, ptr @_ZN5boost6detail12_GLOBAL__N_122current_thread_tls_keyE, align 4, !tbaa !54
  %6 = tail call noundef ptr @pthread_getspecific(i32 noundef %5) #32
  %.not = icmp eq ptr %6, null
  br i1 %.not, label %15, label %7

7:                                                ; preds = %4
  %8 = load i8, ptr %0, align 1, !tbaa !155, !range !51, !noundef !52
  %9 = tail call noundef zeroext i1 @_ZN5boost13thread_detail17enter_once_regionERNS_9once_flagE(ptr noundef nonnull align 4 dereferenceable(4) @_ZN5boost6detail12_GLOBAL__N_128current_thread_tls_init_flagE) #32
  br i1 %9, label %_ZN5boost6detail6invokeIPFvvEJEEEDTclclsr5boostE7forwardIT_Efp_Espclsr5boostE7forwardIT0_Efp0_EEEOS4_DpOS5_.exit.i.i1, label %11

_ZN5boost6detail6invokeIPFvvEJEEEDTclclsr5boostE7forwardIT_Efp_Espclsr5boostE7forwardIT0_Efp0_EEEOS4_DpOS5_.exit.i.i1: ; preds = %7
  %10 = tail call i32 @pthread_key_create(ptr noundef nonnull @_ZN5boost6detail12_GLOBAL__N_122current_thread_tls_keyE, ptr noundef nonnull @_ZN5boost6detail12_GLOBAL__N_114tls_destructorEPv) #32
  tail call void @_ZN5boost13thread_detail18commit_once_regionERNS_9once_flagE(ptr noundef nonnull align 4 dereferenceable(4) @_ZN5boost6detail12_GLOBAL__N_128current_thread_tls_init_flagE) #32
  br label %11

11:                                               ; preds = %_ZN5boost6detail6invokeIPFvvEJEEEDTclclsr5boostE7forwardIT_Efp_Espclsr5boostE7forwardIT0_Efp0_EEEOS4_DpOS5_.exit.i.i1, %7
  %12 = load i32, ptr @_ZN5boost6detail12_GLOBAL__N_122current_thread_tls_keyE, align 4, !tbaa !54
  %13 = tail call noundef ptr @pthread_getspecific(i32 noundef %12) #32
  %14 = getelementptr inbounds nuw i8, ptr %13, i64 304
  store i8 %8, ptr %14, align 8, !tbaa !56
  br label %15

15:                                               ; preds = %11, %4
  ret void
}